target datalayout = "e-m:e-p270:32:32-p271:32:32-p272:64:64-i64:64-i128:128-f80:128-n8:16:32:64-S128"
target triple = "x86_64-pc-linux-gnu"

%struct.grpc_iomgr_object = type { ptr, ptr, ptr }

@_ZL4g_mu = internal global i64 0, align 8
@_ZL13g_root_object = internal global %struct.grpc_iomgr_object zeroinitializer, align 8

; Function Attrs: mustprogress nounwind uwtable
define internal noundef i64 @_ZL13count_objectsv() #6 {
  %1 = alloca ptr, align 8
  %2 = alloca i64, align 8
  call void @llvm.lifetime.start.p0(i64 8, ptr %1) #3
  call void @llvm.lifetime.start.p0(i64 8, ptr %2) #3
  store i64 0, ptr %2, align 8, !tbaa !36
  %3 = load ptr, ptr getelementptr inbounds nuw (%struct.grpc_iomgr_object, ptr @_ZL13g_root_object, i32 0, i32 1), align 8, !tbaa !12
  store ptr %3, ptr %1, align 8, !tbaa !37
  br label %4

4:                                                ; preds = %10, %0
  %5 = load ptr, ptr %1, align 8, !tbaa !37
  %6 = icmp ne ptr %5, @_ZL13g_root_object
  br i1 %6, label %7, label %14

7:                                                ; preds = %4
  %8 = load i64, ptr %2, align 8, !tbaa !36
  %9 = add i64 %8, 1
  store i64 %9, ptr %2, align 8, !tbaa !36
  br label %10

10:                                               ; preds = %7
  %11 = load ptr, ptr %1, align 8, !tbaa !37
  %12 = getelementptr inbounds nuw %struct.grpc_iomgr_object, ptr %11, i32 0, i32 1
  %13 = load ptr, ptr %12, align 8, !tbaa !12
  store ptr %13, ptr %1, align 8, !tbaa !37
  br label %4, !llvm.loop !38

14:                                               ; preds = %4
  %15 = load i64, ptr %2, align 8, !tbaa !36
  call void @llvm.lifetime.end.p0(i64 8, ptr %2) #3
  call void @llvm.lifetime.end.p0(i64 8, ptr %1) #3
  ret i64 %15
}

; Function Attrs: mustprogress uwtable
define noundef i64 @_Z36grpc_iomgr_count_objects_for_testingv() #4 {
  %1 = alloca i64, align 8
  call void @gpr_mu_lock(ptr noundef @_ZL4g_mu)
  call void @llvm.lifetime.start.p0(i64 8, ptr %1) #3
  %2 = call noundef i64 @_ZL13count_objectsv()
  store i64 %2, ptr %1, align 8, !tbaa !36
  call void @gpr_mu_unlock(ptr noundef @_ZL4g_mu)
  %3 = load i64, ptr %1, align 8, !tbaa !36
  call void @llvm.lifetime.end.p0(i64 8, ptr %1) #3
  ret i64 %3
}