; Function Attrs: mustprogress uwtable
define noundef i64 @_Z36grpc_iomgr_count_objects_for_testingv() local_unnamed_addr #6 {
  tail call void @gpr_mu_lock(ptr noundef nonnull @_ZL4g_mu)
  %.034.i = load ptr, ptr getelementptr inbounds nuw (i8, ptr @_ZL13g_root_object, i64 8), align 8, !tbaa !30
  %.not5.i = icmp eq ptr %.034.i, @_ZL13g_root_object
  br i1 %.not5.i, label %_ZL13count_objectsv.exit, label %.lr.ph.i

.lr.ph.i:                                         ; preds = %0, %.lr.ph.i
  %.037.i = phi ptr [ %.03.i, %.lr.ph.i ], [ %.034.i, %0 ]
  %.06.i = phi i64 [ %1, %.lr.ph.i ], [ 0, %0 ]
  %1 = add i64 %.06.i, 1
  %2 = getelementptr inbounds nuw i8, ptr %.037.i, i64 8
  %.03.i = load ptr, ptr %2, align 8, !tbaa !30
  %.not.i = icmp eq ptr %.03.i, @_ZL13g_root_object
  br i1 %.not.i, label %_ZL13count_objectsv.exit, label %.lr.ph.i, !llvm.loop !39

_ZL13count_objectsv.exit:                         ; preds = %.lr.ph.i, %0
  %.0.lcssa.i = phi i64 [ 0, %0 ], [ %1, %.lr.ph.i ]
  tail call void @gpr_mu_unlock(ptr noundef nonnull @_ZL4g_mu)
  ret i64 %.0.lcssa.i
}